target datalayout = "e-m:e-p270:32:32-p271:32:32-p272:64:64-i64:64-i128:128-f80:128-n8:16:32:64-S128"
target triple = "x86_64-pc-linux-gnu"

%struct.CVodeMemRec = type { double, ptr, ptr, i32, i32, i32, double, double, ptr, i32, ptr, ptr, i32, ptr, i32, i32, double, double, ptr, i32, i32, i32, ptr, ptr, ptr, i32, i32, ptr, ptr, ptr, i32, double, i32, i32, double, ptr, ptr, i32, ptr, ptr, i32, i32, i32, double, ptr, ptr, [13 x ptr], ptr, ptr, ptr, ptr, ptr, [13 x ptr], ptr, ptr, ptr, ptr, [13 x ptr], ptr, ptr, ptr, ptr, ptr, i32, [13 x ptr], ptr, ptr, ptr, ptr, ptr, i32, double, i32, i32, i32, i32, i32, double, double, double, double, double, double, double, double, [14 x double], [6 x double], [13 x double], double, double, double, double, double, double, double, double, double, double, double, i32, ptr, i32, i64, i32, i32, i32, i32, i32, double, double, double, i64, i64, i64, i64, i64, i64, i64, i64, i64, ptr, i64, i64, ptr, i64, i64, i64, i64, i64, i64, i32, i64, i64, i64, i64, i64, i64, double, double, double, ptr, ptr, ptr, ptr, ptr, i32, i32, i64, double, double, double, i32, double, i32, i32, i32, i32, i32, i32, i32, i32, i32, i32, i32, i32, i32, i32, i32, i32, ptr, ptr, ptr, i32, [6 x [4 x double]], i32, i64, ptr, i32, ptr, ptr, double, double, double, ptr, ptr, ptr, double, double, i32, i32, i64, ptr, i32, i32, ptr, i32 }
%struct.CVSpilsMemRec = type { i32, i32, i32, double, double, double, double, i32, i64, i64, i64, i64, i64, i64, i64, ptr, ptr, ptr, ptr, ptr, ptr, ptr, ptr, ptr, i32, ptr, ptr, i64 }
%struct.CVadjMemRec = type { double, double, i32, i32, double, ptr, i32, ptr, i32, ptr, i32, ptr, i64, ptr, i64, i32, ptr, ptr, ptr, ptr, i32, i32, i32, i32, [13 x ptr], [13 x ptr], [13 x double], ptr, ptr, i64 }
%struct.CVodeBMemRec = type { i32, double, ptr, i32, i32, ptr, ptr, ptr, ptr, ptr, ptr, ptr, ptr, ptr, double, ptr, ptr }
%struct.CVSpilsMemRecB = type { ptr, ptr, ptr, ptr, ptr, ptr, ptr }

@.str = private unnamed_addr constant [8 x i8] c"CVSPILS\00", align 1
@.str.2 = private unnamed_addr constant [27 x i8] c"Integrator memory is NULL.\00", align 1
@.str.3 = private unnamed_addr constant [30 x i8] c"Linear solver memory is NULL.\00", align 1
@.str.11 = private unnamed_addr constant [25 x i8] c"CVSpilsSetPreconditioner\00", align 1
@.str.31 = private unnamed_addr constant [55 x i8] c"Illegal attempt to call before calling CVodeAdjMalloc.\00", align 1
@.str.32 = private unnamed_addr constant [25 x i8] c"Illegal value for which.\00", align 1
@.str.37 = private unnamed_addr constant [59 x i8] c"Linear solver memory is NULL for the backward integration.\00", align 1
@.str.38 = private unnamed_addr constant [27 x i8] c"CVSpilsSetPreconditionerBS\00", align 1

; Function Attrs: nounwind uwtable
define i32 @CVSpilsSetPreconditioner(ptr noundef %0, ptr noundef %1, ptr noundef %2) #0 {
  %4 = alloca i32, align 4
  %5 = alloca ptr, align 8
  %6 = alloca ptr, align 8
  %7 = alloca ptr, align 8
  %8 = alloca ptr, align 8
  %9 = alloca ptr, align 8
  %10 = alloca i32, align 4
  store ptr %0, ptr %5, align 8, !tbaa !3
  store ptr %1, ptr %6, align 8, !tbaa !3
  store ptr %2, ptr %7, align 8, !tbaa !3
  call void @llvm.lifetime.start.p0(i64 8, ptr %8) #5
  call void @llvm.lifetime.start.p0(i64 8, ptr %9) #5
  %11 = load ptr, ptr %5, align 8, !tbaa !3
  %12 = icmp eq ptr %11, null
  br i1 %12, label %13, label %14

13:                                               ; preds = %3
  call void (ptr, i32, ptr, ptr, ptr, ...) @cvProcessError(ptr noundef null, i32 noundef -1, ptr noundef @.str, ptr noundef @.str.11, ptr noundef @.str.2)
  store i32 -1, ptr %4, align 4
  store i32 1, ptr %10, align 4
  br label %32

14:                                               ; preds = %3
  %15 = load ptr, ptr %5, align 8, !tbaa !3
  store ptr %15, ptr %8, align 8, !tbaa !9
  %16 = load ptr, ptr %8, align 8, !tbaa !9
  %17 = getelementptr inbounds nuw %struct.CVodeMemRec, ptr %16, i32 0, i32 144
  %18 = load ptr, ptr %17, align 8, !tbaa !11
  %19 = icmp eq ptr %18, null
  br i1 %19, label %20, label %22

20:                                               ; preds = %14
  %21 = load ptr, ptr %8, align 8, !tbaa !9
  call void (ptr, i32, ptr, ptr, ptr, ...) @cvProcessError(ptr noundef %21, i32 noundef -2, ptr noundef @.str, ptr noundef @.str.11, ptr noundef @.str.3)
  store i32 -2, ptr %4, align 4
  store i32 1, ptr %10, align 4
  br label %32

22:                                               ; preds = %14
  %23 = load ptr, ptr %8, align 8, !tbaa !9
  %24 = getelementptr inbounds nuw %struct.CVodeMemRec, ptr %23, i32 0, i32 144
  %25 = load ptr, ptr %24, align 8, !tbaa !11
  store ptr %25, ptr %9, align 8, !tbaa !22
  %26 = load ptr, ptr %6, align 8, !tbaa !3
  %27 = load ptr, ptr %9, align 8, !tbaa !22
  %28 = getelementptr inbounds nuw %struct.CVSpilsMemRec, ptr %27, i32 0, i32 20
  store ptr %26, ptr %28, align 8, !tbaa !31
  %29 = load ptr, ptr %7, align 8, !tbaa !3
  %30 = load ptr, ptr %9, align 8, !tbaa !22
  %31 = getelementptr inbounds nuw %struct.CVSpilsMemRec, ptr %30, i32 0, i32 21
  store ptr %29, ptr %31, align 8, !tbaa !32
  store i32 0, ptr %4, align 4
  store i32 1, ptr %10, align 4
  br label %32

32:                                               ; preds = %22, %20, %13
  call void @llvm.lifetime.end.p0(i64 8, ptr %9) #5
  call void @llvm.lifetime.end.p0(i64 8, ptr %8) #5
  %33 = load i32, ptr %4, align 4
  ret i32 %33
}

; Function Attrs: nounwind uwtable
define i32 @CVSpilsSetPreconditionerBS(ptr noundef %0, i32 noundef %1, ptr noundef %2, ptr noundef %3) #0 {
  %5 = alloca i32, align 4
  %6 = alloca ptr, align 8
  %7 = alloca i32, align 4
  %8 = alloca ptr, align 8
  %9 = alloca ptr, align 8
  %10 = alloca ptr, align 8
  %11 = alloca ptr, align 8
  %12 = alloca ptr, align 8
  %13 = alloca ptr, align 8
  %14 = alloca ptr, align 8
  %15 = alloca i32, align 4
  %16 = alloca i32, align 4
  store ptr %0, ptr %6, align 8, !tbaa !3
  store i32 %1, ptr %7, align 4, !tbaa !7
  store ptr %2, ptr %8, align 8, !tbaa !3
  store ptr %3, ptr %9, align 8, !tbaa !3
  call void @llvm.lifetime.start.p0(i64 8, ptr %10) #5
  call void @llvm.lifetime.start.p0(i64 8, ptr %11) #5
  call void @llvm.lifetime.start.p0(i64 8, ptr %12) #5
  call void @llvm.lifetime.start.p0(i64 8, ptr %13) #5
  call void @llvm.lifetime.start.p0(i64 8, ptr %14) #5
  call void @llvm.lifetime.start.p0(i64 4, ptr %15) #5
  %17 = load ptr, ptr %6, align 8, !tbaa !3
  %18 = icmp eq ptr %17, null
  br i1 %18, label %19, label %20

19:                                               ; preds = %4
  call void (ptr, i32, ptr, ptr, ptr, ...) @cvProcessError(ptr noundef null, i32 noundef -1, ptr noundef @.str, ptr noundef @.str.38, ptr noundef @.str.2)
  store i32 -1, ptr %5, align 4
  store i32 1, ptr %16, align 4
  br label %87

20:                                               ; preds = %4
  %21 = load ptr, ptr %6, align 8, !tbaa !3
  store ptr %21, ptr %10, align 8, !tbaa !9
  %22 = load ptr, ptr %10, align 8, !tbaa !9
  %23 = getelementptr inbounds nuw %struct.CVodeMemRec, ptr %22, i32 0, i32 195
  %24 = load i32, ptr %23, align 8, !tbaa !62
  %25 = icmp eq i32 %24, 0
  br i1 %25, label %26, label %28

26:                                               ; preds = %20
  %27 = load ptr, ptr %10, align 8, !tbaa !9
  call void (ptr, i32, ptr, ptr, ptr, ...) @cvProcessError(ptr noundef %27, i32 noundef -101, ptr noundef @.str, ptr noundef @.str.38, ptr noundef @.str.31)
  store i32 -101, ptr %5, align 4
  store i32 1, ptr %16, align 4
  br label %87

28:                                               ; preds = %20
  %29 = load ptr, ptr %10, align 8, !tbaa !9
  %30 = getelementptr inbounds nuw %struct.CVodeMemRec, ptr %29, i32 0, i32 194
  %31 = load ptr, ptr %30, align 8, !tbaa !63
  store ptr %31, ptr %11, align 8, !tbaa !64
  %32 = load i32, ptr %7, align 4, !tbaa !7
  %33 = load ptr, ptr %11, align 8, !tbaa !64
  %34 = getelementptr inbounds nuw %struct.CVadjMemRec, ptr %33, i32 0, i32 6
  %35 = load i32, ptr %34, align 8, !tbaa !65
  %36 = icmp sge i32 %32, %35
  br i1 %36, label %37, label %39

37:                                               ; preds = %28
  %38 = load ptr, ptr %10, align 8, !tbaa !9
  call void (ptr, i32, ptr, ptr, ptr, ...) @cvProcessError(ptr noundef %38, i32 noundef -3, ptr noundef @.str, ptr noundef @.str.38, ptr noundef @.str.32)
  store i32 -3, ptr %5, align 4
  store i32 1, ptr %16, align 4
  br label %87

39:                                               ; preds = %28
  %40 = load ptr, ptr %11, align 8, !tbaa !64
  %41 = getelementptr inbounds nuw %struct.CVadjMemRec, ptr %40, i32 0, i32 5
  %42 = load ptr, ptr %41, align 8, !tbaa !70
  store ptr %42, ptr %12, align 8, !tbaa !71
  br label %43

43:                                               ; preds = %53, %39
  %44 = load ptr, ptr %12, align 8, !tbaa !71
  %45 = icmp ne ptr %44, null
  br i1 %45, label %46, label %57

46:                                               ; preds = %43
  %47 = load i32, ptr %7, align 4, !tbaa !7
  %48 = load ptr, ptr %12, align 8, !tbaa !71
  %49 = getelementptr inbounds nuw %struct.CVodeBMemRec, ptr %48, i32 0, i32 0
  %50 = load i32, ptr %49, align 8, !tbaa !72
  %51 = icmp eq i32 %47, %50
  br i1 %51, label %52, label %53

52:                                               ; preds = %46
  br label %57

53:                                               ; preds = %46
  %54 = load ptr, ptr %12, align 8, !tbaa !71
  %55 = getelementptr inbounds nuw %struct.CVodeBMemRec, ptr %54, i32 0, i32 16
  %56 = load ptr, ptr %55, align 8, !tbaa !74
  store ptr %56, ptr %12, align 8, !tbaa !71
  br label %43, !llvm.loop !92

57:                                               ; preds = %52, %43
  %58 = load ptr, ptr %12, align 8, !tbaa !71
  %59 = getelementptr inbounds nuw %struct.CVodeBMemRec, ptr %58, i32 0, i32 2
  %60 = load ptr, ptr %59, align 8, !tbaa !76
  store ptr %60, ptr %14, align 8, !tbaa !3
  %61 = load ptr, ptr %12, align 8, !tbaa !71
  %62 = getelementptr inbounds nuw %struct.CVodeBMemRec, ptr %61, i32 0, i32 10
  %63 = load ptr, ptr %62, align 8, !tbaa !81
  %64 = icmp eq ptr %63, null
  br i1 %64, label %65, label %67

65:                                               ; preds = %57
  %66 = load ptr, ptr %10, align 8, !tbaa !9
  call void (ptr, i32, ptr, ptr, ptr, ...) @cvProcessError(ptr noundef %66, i32 noundef -102, ptr noundef @.str, ptr noundef @.str.38, ptr noundef @.str.37)
  store i32 -102, ptr %5, align 4
  store i32 1, ptr %16, align 4
  br label %87

67:                                               ; preds = %57
  %68 = load ptr, ptr %12, align 8, !tbaa !71
  %69 = getelementptr inbounds nuw %struct.CVodeBMemRec, ptr %68, i32 0, i32 10
  %70 = load ptr, ptr %69, align 8, !tbaa !81
  store ptr %70, ptr %13, align 8, !tbaa !82
  %71 = load ptr, ptr %8, align 8, !tbaa !3
  %72 = load ptr, ptr %13, align 8, !tbaa !82
  %73 = getelementptr inbounds nuw %struct.CVSpilsMemRecB, ptr %72, i32 0, i32 3
  store ptr %71, ptr %73, align 8, !tbaa !93
  %74 = load ptr, ptr %9, align 8, !tbaa !3
  %75 = load ptr, ptr %13, align 8, !tbaa !82
  %76 = getelementptr inbounds nuw %struct.CVSpilsMemRecB, ptr %75, i32 0, i32 5
  store ptr %74, ptr %76, align 8, !tbaa !94
  %77 = load ptr, ptr %8, align 8, !tbaa !3
  %78 = icmp eq ptr %77, null
  br i1 %78, label %79, label %82

79:                                               ; preds = %67
  %80 = load ptr, ptr %14, align 8, !tbaa !3
  %81 = call i32 @CVSpilsSetPreconditioner(ptr noundef %80, ptr noundef null, ptr noundef @cvSpilsPrecSolveBSWrapper)
  store i32 %81, ptr %15, align 4, !tbaa !7
  br label %85

82:                                               ; preds = %67
  %83 = load ptr, ptr %14, align 8, !tbaa !3
  %84 = call i32 @CVSpilsSetPreconditioner(ptr noundef %83, ptr noundef @cvSpilsPrecSetupBSWrapper, ptr noundef @cvSpilsPrecSolveBSWrapper)
  store i32 %84, ptr %15, align 4, !tbaa !7
  br label %85

85:                                               ; preds = %82, %79
  %86 = load i32, ptr %15, align 4, !tbaa !7
  store i32 %86, ptr %5, align 4
  store i32 1, ptr %16, align 4
  br label %87

87:                                               ; preds = %85, %65, %37, %26, %19
  call void @llvm.lifetime.end.p0(i64 4, ptr %15) #5
  call void @llvm.lifetime.end.p0(i64 8, ptr %14) #5
  call void @llvm.lifetime.end.p0(i64 8, ptr %13) #5
  call void @llvm.lifetime.end.p0(i64 8, ptr %12) #5
  call void @llvm.lifetime.end.p0(i64 8, ptr %11) #5
  call void @llvm.lifetime.end.p0(i64 8, ptr %10) #5
  %88 = load i32, ptr %5, align 4
  ret i32 %88
}