; Function Attrs: nounwind uwtable
define range(i32 -102, 1) i32 @CVSpilsSetPreconditionerBS(ptr noundef %0, i32 noundef %1, ptr noundef %2, ptr noundef %3) local_unnamed_addr #0 {
  %5 = icmp eq ptr %0, null
  br i1 %5, label %6, label %7

6:                                                ; preds = %4
  tail call void (ptr, i32, ptr, ptr, ptr, ...) @cvProcessError(ptr noundef null, i32 noundef -1, ptr noundef nonnull @.str, ptr noundef nonnull @.str.38, ptr noundef nonnull @.str.2) #5
  br label %CVSpilsSetPreconditioner.exit

7:                                                ; preds = %4
  %8 = getelementptr inbounds nuw i8, ptr %0, i64 2200
  %9 = load i32, ptr %8, align 8, !tbaa !51
  %10 = icmp eq i32 %9, 0
  br i1 %10, label %11, label %12

11:                                               ; preds = %7
  tail call void (ptr, i32, ptr, ptr, ptr, ...) @cvProcessError(ptr noundef nonnull %0, i32 noundef -101, ptr noundef nonnull @.str, ptr noundef nonnull @.str.38, ptr noundef nonnull @.str.31) #5
  br label %CVSpilsSetPreconditioner.exit

12:                                               ; preds = %7
  %13 = getelementptr inbounds nuw i8, ptr %0, i64 2192
  %14 = load ptr, ptr %13, align 8, !tbaa !52
  %15 = getelementptr inbounds nuw i8, ptr %14, i64 40
  %16 = load i32, ptr %15, align 8, !tbaa !53
  %.not = icmp slt i32 %1, %16
  br i1 %.not, label %18, label %17

17:                                               ; preds = %12
  tail call void (ptr, i32, ptr, ptr, ptr, ...) @cvProcessError(ptr noundef nonnull %0, i32 noundef -3, ptr noundef nonnull @.str, ptr noundef nonnull @.str.38, ptr noundef nonnull @.str.32) #5
  br label %CVSpilsSetPreconditioner.exit

18:                                               ; preds = %12
  %19 = getelementptr inbounds nuw i8, ptr %14, i64 32
  br label %.lr.ph

.lr.ph:                                           ; preds = %.lr.ph, %18
  %.026.sink.in = phi ptr [ %22, %.lr.ph ], [ %19, %18 ]
  %.026.sink = load ptr, ptr %.026.sink.in, align 8, !tbaa !58, !nonnull !59, !noundef !59
  %20 = load i32, ptr %.026.sink, align 8, !tbaa !60
  %21 = icmp eq i32 %1, %20
  %22 = getelementptr inbounds nuw i8, ptr %.026.sink, i64 120
  br i1 %21, label %._crit_edge, label %.lr.ph

._crit_edge:                                      ; preds = %.lr.ph
  %23 = getelementptr inbounds nuw i8, ptr %.026.sink, i64 16
  %24 = load ptr, ptr %23, align 8, !tbaa !63
  %25 = getelementptr inbounds nuw i8, ptr %.026.sink, i64 72
  %26 = load ptr, ptr %25, align 8, !tbaa !64
  %27 = icmp eq ptr %26, null
  br i1 %27, label %28, label %29

28:                                               ; preds = %._crit_edge
  tail call void (ptr, i32, ptr, ptr, ptr, ...) @cvProcessError(ptr noundef nonnull %0, i32 noundef -102, ptr noundef nonnull @.str, ptr noundef nonnull @.str.38, ptr noundef nonnull @.str.37) #5
  br label %CVSpilsSetPreconditioner.exit

29:                                               ; preds = %._crit_edge
  %30 = getelementptr inbounds nuw i8, ptr %26, i64 24
  store ptr %2, ptr %30, align 8, !tbaa !72
  %31 = getelementptr inbounds nuw i8, ptr %26, i64 40
  store ptr %3, ptr %31, align 8, !tbaa !73
  %32 = icmp eq ptr %2, null
  %33 = icmp eq ptr %24, null
  br i1 %32, label %34, label %44

34:                                               ; preds = %29
  br i1 %33, label %35, label %36

35:                                               ; preds = %34
  tail call void (ptr, i32, ptr, ptr, ptr, ...) @cvProcessError(ptr noundef null, i32 noundef -1, ptr noundef nonnull @.str, ptr noundef nonnull @.str.11, ptr noundef nonnull @.str.2) #5
  br label %CVSpilsSetPreconditioner.exit

36:                                               ; preds = %34
  %37 = getelementptr inbounds nuw i8, ptr %24, i64 1696
  %38 = load ptr, ptr %37, align 8, !tbaa !3
  %39 = icmp eq ptr %38, null
  br i1 %39, label %40, label %41

40:                                               ; preds = %36
  tail call void (ptr, i32, ptr, ptr, ptr, ...) @cvProcessError(ptr noundef nonnull %24, i32 noundef -2, ptr noundef nonnull @.str, ptr noundef nonnull @.str.11, ptr noundef nonnull @.str.3) #5
  br label %CVSpilsSetPreconditioner.exit

41:                                               ; preds = %36
  %42 = getelementptr inbounds nuw i8, ptr %38, i64 152
  store ptr null, ptr %42, align 8, !tbaa !24
  %43 = getelementptr inbounds nuw i8, ptr %38, i64 160
  store ptr @cvSpilsPrecSolveBSWrapper, ptr %43, align 8, !tbaa !25
  br label %CVSpilsSetPreconditioner.exit

44:                                               ; preds = %29
  br i1 %33, label %45, label %46

45:                                               ; preds = %44
  tail call void (ptr, i32, ptr, ptr, ptr, ...) @cvProcessError(ptr noundef null, i32 noundef -1, ptr noundef nonnull @.str, ptr noundef nonnull @.str.11, ptr noundef nonnull @.str.2) #5
  br label %CVSpilsSetPreconditioner.exit

46:                                               ; preds = %44
  %47 = getelementptr inbounds nuw i8, ptr %24, i64 1696
  %48 = load ptr, ptr %47, align 8, !tbaa !3
  %49 = icmp eq ptr %48, null
  br i1 %49, label %50, label %51

50:                                               ; preds = %46
  tail call void (ptr, i32, ptr, ptr, ptr, ...) @cvProcessError(ptr noundef nonnull %24, i32 noundef -2, ptr noundef nonnull @.str, ptr noundef nonnull @.str.11, ptr noundef nonnull @.str.3) #5
  br label %CVSpilsSetPreconditioner.exit

51:                                               ; preds = %46
  %52 = getelementptr inbounds nuw i8, ptr %48, i64 152
  store ptr @cvSpilsPrecSetupBSWrapper, ptr %52, align 8, !tbaa !24
  %53 = getelementptr inbounds nuw i8, ptr %48, i64 160
  store ptr @cvSpilsPrecSolveBSWrapper, ptr %53, align 8, !tbaa !25
  br label %CVSpilsSetPreconditioner.exit

CVSpilsSetPreconditioner.exit:                    ; preds = %51, %50, %45, %41, %40, %35, %28, %17, %11, %6
  %.025 = phi i32 [ -1, %6 ], [ -101, %11 ], [ -3, %17 ], [ -102, %28 ], [ -1, %35 ], [ -2, %40 ], [ 0, %41 ], [ -1, %45 ], [ -2, %50 ], [ 0, %51 ]
  ret i32 %.025
}